target datalayout = "e-m:e-p270:32:32-p271:32:32-p272:64:64-i64:64-i128:128-f80:128-n8:16:32:64-S128"
target triple = "x86_64-unknown-linux-gnu"

%struct.Property = type { ptr, ptr, i64, i8, i64, i8, %union.anon, i32, ptr, i32, ptr }
%union.anon = type { i64 }
%struct.DeviceClass = type { %struct.ObjectClass, [1 x i64], ptr, ptr, ptr, i8, i8, ptr, ptr, ptr, ptr, ptr }
%struct.ObjectClass = type { ptr, ptr, [4 x ptr], [4 x ptr], ptr, ptr }

@.str.21 = private unnamed_addr constant [7 x i8] c"device\00", align 1
@.str.26 = private unnamed_addr constant [101 x i8] c"/home/dtcxzyw/WorkSpace/Projects/compilers/llvm-opt-benchmark/bench/qemu/qemu/include/hw/qdev-core.h\00", align 1
@__func__.DEVICE_CLASS = private unnamed_addr constant [13 x i8] c"DEVICE_CLASS\00", align 1

; Function Attrs: nounwind sspstrong uwtable
define internal ptr @DEVICE_CLASS(ptr noundef %klass) #0 {
entry:
  %klass.addr = alloca ptr, align 8
  store ptr %klass, ptr %klass.addr, align 8
  %0 = load ptr, ptr %klass.addr, align 8
  %call = call ptr @object_class_dynamic_cast_assert(ptr noundef %0, ptr noundef @.str.21, ptr noundef @.str.26, i32 noundef 77, ptr noundef @__func__.DEVICE_CLASS)
  ret ptr %call
}

; Function Attrs: nounwind sspstrong uwtable
define dso_local void @qdev_alias_all_properties(ptr noundef %target, ptr noundef %source) #0 {
entry:
  %target.addr = alloca ptr, align 8
  %source.addr = alloca ptr, align 8
  %class = alloca ptr, align 8
  %prop = alloca ptr, align 8
  %dc = alloca ptr, align 8
  store ptr %target, ptr %target.addr, align 8
  store ptr %source, ptr %source.addr, align 8
  %0 = load ptr, ptr %target.addr, align 8
  %call = call ptr @object_get_class(ptr noundef %0)
  store ptr %call, ptr %class, align 8
  br label %do.body

do.body:                                          ; preds = %do.cond, %entry
  %1 = load ptr, ptr %class, align 8
  %call1 = call ptr @DEVICE_CLASS(ptr noundef %1)
  store ptr %call1, ptr %dc, align 8
  %2 = load ptr, ptr %dc, align 8
  %props_ = getelementptr inbounds %struct.DeviceClass, ptr %2, i32 0, i32 4
  %3 = load ptr, ptr %props_, align 8
  store ptr %3, ptr %prop, align 8
  br label %for.cond

for.cond:                                         ; preds = %for.inc, %do.body
  %4 = load ptr, ptr %prop, align 8
  %tobool = icmp ne ptr %4, null
  br i1 %tobool, label %land.rhs, label %land.end

land.rhs:                                         ; preds = %for.cond
  %5 = load ptr, ptr %prop, align 8
  %name = getelementptr inbounds %struct.Property, ptr %5, i32 0, i32 0
  %6 = load ptr, ptr %name, align 8
  %tobool2 = icmp ne ptr %6, null
  br label %land.end

land.end:                                         ; preds = %land.rhs, %for.cond
  %7 = phi i1 [ false, %for.cond ], [ %tobool2, %land.rhs ]
  br i1 %7, label %for.body, label %for.end

for.body:                                         ; preds = %land.end
  %8 = load ptr, ptr %source.addr, align 8
  %9 = load ptr, ptr %prop, align 8
  %name3 = getelementptr inbounds %struct.Property, ptr %9, i32 0, i32 0
  %10 = load ptr, ptr %name3, align 8
  %11 = load ptr, ptr %target.addr, align 8
  %12 = load ptr, ptr %prop, align 8
  %name4 = getelementptr inbounds %struct.Property, ptr %12, i32 0, i32 0
  %13 = load ptr, ptr %name4, align 8
  %call5 = call ptr @object_property_add_alias(ptr noundef %8, ptr noundef %10, ptr noundef %11, ptr noundef %13)
  br label %for.inc

for.inc:                                          ; preds = %for.body
  %14 = load ptr, ptr %prop, align 8
  %incdec.ptr = getelementptr %struct.Property, ptr %14, i32 1
  store ptr %incdec.ptr, ptr %prop, align 8
  br label %for.cond, !llvm.loop !17

for.end:                                          ; preds = %land.end
  %15 = load ptr, ptr %class, align 8
  %call6 = call ptr @object_class_get_parent(ptr noundef %15)
  store ptr %call6, ptr %class, align 8
  br label %do.cond

do.cond:                                          ; preds = %for.end
  %16 = load ptr, ptr %class, align 8
  %call7 = call ptr @object_class_by_name(ptr noundef @.str.21)
  %cmp = icmp ne ptr %16, %call7
  br i1 %cmp, label %do.body, label %do.end, !llvm.loop !18

do.end:                                           ; preds = %do.cond
  ret void
}