; Function Attrs: nounwind sspstrong uwtable
define dso_local void @qdev_alias_all_properties(ptr noundef %target, ptr noundef %source) local_unnamed_addr #0 {
entry:
  %call = tail call ptr @object_get_class(ptr noundef %target) #9
  br label %do.body

do.body:                                          ; preds = %for.end, %entry
  %class.0 = phi ptr [ %call, %entry ], [ %call6, %for.end ]
  %call.i = tail call ptr @object_class_dynamic_cast_assert(ptr noundef %class.0, ptr noundef nonnull @.str.21, ptr noundef nonnull @.str.26, i32 noundef 77, ptr noundef nonnull @__func__.DEVICE_CLASS) #9
  %props_ = getelementptr inbounds nuw i8, ptr %call.i, i64 120
  %0 = load ptr, ptr %props_, align 8
  %tobool.not8 = icmp eq ptr %0, null
  br i1 %tobool.not8, label %for.end, label %land.rhs

land.rhs:                                         ; preds = %do.body, %for.body
  %prop.09 = phi ptr [ %incdec.ptr, %for.body ], [ %0, %do.body ]
  %1 = load ptr, ptr %prop.09, align 8
  %tobool2.not = icmp eq ptr %1, null
  br i1 %tobool2.not, label %for.end, label %for.body

for.body:                                         ; preds = %land.rhs
  %call5 = tail call ptr @object_property_add_alias(ptr noundef %source, ptr noundef nonnull %1, ptr noundef %target, ptr noundef nonnull %1) #9
  %incdec.ptr = getelementptr i8, ptr %prop.09, i64 88
  %tobool.not = icmp eq ptr %incdec.ptr, null
  br i1 %tobool.not, label %for.end, label %land.rhs, !llvm.loop !26

for.end:                                          ; preds = %land.rhs, %for.body, %do.body
  %call6 = tail call ptr @object_class_get_parent(ptr noundef %class.0) #9
  %call7 = tail call ptr @object_class_by_name(ptr noundef nonnull @.str.21) #9
  %cmp.not = icmp eq ptr %call6, %call7
  br i1 %cmp.not, label %do.end, label %do.body, !llvm.loop !27

do.end:                                           ; preds = %for.end
  ret void
}